; Function Attrs: mustprogress uwtable
define hidden noundef i32 @_ZNK6Assimp4Ogre17OgreXmlSerializer13ReadAttributeIiEET_RN4pugi8xml_nodeEPKc(ptr nocapture nonnull readnone align 8 %this, ptr nocapture noundef nonnull readonly align 8 dereferenceable(8) %xmlNode, ptr noundef %name) local_unnamed_addr #4 align 2 personality ptr @__gxx_personality_v0 {
entry:
  %ref.tmp = alloca %"class.std::__cxx11::basic_string", align 8
  %ref.tmp3 = alloca %"class.std::allocator.3", align 1
  %ref.tmp4 = alloca %"class.std::__cxx11::basic_string", align 8
  %ref.tmp5 = alloca %"class.std::allocator.3", align 1
  %ref.tmp8 = alloca %"class.std::__cxx11::basic_string", align 8
  %ref.tmp9 = alloca %"class.std::allocator.3", align 1
  %0 = load ptr, ptr %xmlNode, align 8
  %tobool.not.i.i = icmp eq ptr %0, null
  br i1 %tobool.not.i.i, label %_ZNK4pugi8xml_node4nameEv.exit, label %if.end.i.i

if.end.i.i:                                       ; preds = %entry
  %first_attribute.i.i = getelementptr inbounds i8, ptr %0, i64 56
  %i.06.i.i = load ptr, ptr %first_attribute.i.i, align 8
  %tobool3.not7.i.i = icmp eq ptr %i.06.i.i, null
  br i1 %tobool3.not7.i.i, label %if.end.i, label %for.body.i.i

for.body.i.i:                                     ; preds = %if.end.i.i, %for.inc.i.i
  %i.08.i.i = phi ptr [ %i.0.i.i, %for.inc.i.i ], [ %i.06.i.i, %if.end.i.i ]
  %name.i.i = getelementptr inbounds i8, ptr %i.08.i.i, i64 8
  %1 = load ptr, ptr %name.i.i, align 8
  %tobool4.not.i.i = icmp eq ptr %1, null
  br i1 %tobool4.not.i.i, label %for.inc.i.i, label %land.lhs.true.i.i

land.lhs.true.i.i:                                ; preds = %for.body.i.i
  %call.i.i.i = tail call i32 @strcmp(ptr noundef nonnull dereferenceable(1) %name, ptr noundef nonnull dereferenceable(1) %1) #30
  %cmp.i.i.i = icmp eq i32 %call.i.i.i, 0
  br i1 %cmp.i.i.i, label %for.body.i, label %for.inc.i.i

for.inc.i.i:                                      ; preds = %land.lhs.true.i.i, %for.body.i.i
  %next_attribute.i.i = getelementptr inbounds i8, ptr %i.08.i.i, i64 32
  %i.0.i.i = load ptr, ptr %next_attribute.i.i, align 8
  %tobool3.not.i.i = icmp eq ptr %i.0.i.i, null
  br i1 %tobool3.not.i.i, label %if.end.i, label %for.body.i.i, !llvm.loop !4

if.end.i:                                         ; preds = %for.inc.i.i, %if.end.i.i
  %name3.i = getelementptr inbounds i8, ptr %0, i64 8
  %2 = load ptr, ptr %name3.i, align 8
  %tobool4.not.i = icmp eq ptr %2, null
  %cond.i = select i1 %tobool4.not.i, ptr @.str.7, ptr %2
  br label %_ZNK4pugi8xml_node4nameEv.exit

_ZNK4pugi8xml_node4nameEv.exit:                   ; preds = %entry, %if.end.i
  %retval.0.i = phi ptr [ %cond.i, %if.end.i ], [ @.str.7, %entry ]
  call void @_ZNSaIcEC1Ev(ptr noundef nonnull align 1 dereferenceable(1) %ref.tmp3) #28
  invoke void @_ZNSt7__cxx1112basic_stringIcSt11char_traitsIcESaIcEEC2IS3_EEPKcRKS3_(ptr noundef nonnull align 8 dereferenceable(32) %ref.tmp, ptr noundef nonnull %retval.0.i, ptr noundef nonnull align 1 dereferenceable(1) %ref.tmp3)
          to label %invoke.cont unwind label %lpad

invoke.cont:                                      ; preds = %_ZNK4pugi8xml_node4nameEv.exit
  call void @_ZNSaIcEC1Ev(ptr noundef nonnull align 1 dereferenceable(1) %ref.tmp5) #28
  invoke void @_ZNSt7__cxx1112basic_stringIcSt11char_traitsIcESaIcEEC2IS3_EEPKcRKS3_(ptr noundef nonnull align 8 dereferenceable(32) %ref.tmp4, ptr noundef %name, ptr noundef nonnull align 1 dereferenceable(1) %ref.tmp5)
          to label %invoke.cont7 unwind label %lpad6

invoke.cont7:                                     ; preds = %invoke.cont
  call void @_ZNSaIcEC1Ev(ptr noundef nonnull align 1 dereferenceable(1) %ref.tmp9) #28
  invoke void @_ZNSt7__cxx1112basic_stringIcSt11char_traitsIcESaIcEEC2IS3_EEPKcRKS3_(ptr noundef nonnull align 8 dereferenceable(32) %ref.tmp8, ptr noundef nonnull @.str.5, ptr noundef nonnull align 1 dereferenceable(1) %ref.tmp9)
          to label %invoke.cont11 unwind label %lpad10

invoke.cont11:                                    ; preds = %invoke.cont7
  invoke void @_ZN6Assimp4Ogre18ThrowAttibuteErrorERKNSt7__cxx1112basic_stringIcSt11char_traitsIcESaIcEEES8_S8_(ptr noundef nonnull align 8 dereferenceable(32) %ref.tmp, ptr noundef nonnull align 8 dereferenceable(32) %ref.tmp4, ptr noundef nonnull align 8 dereferenceable(32) %ref.tmp8) #29
          to label %invoke.cont13 unwind label %lpad12

invoke.cont13:                                    ; preds = %invoke.cont11
  unreachable

lpad:                                             ; preds = %_ZNK4pugi8xml_node4nameEv.exit
  %3 = landingpad { ptr, i32 }
          cleanup
  br label %ehcleanup17

lpad6:                                            ; preds = %invoke.cont
  %4 = landingpad { ptr, i32 }
          cleanup
  br label %ehcleanup15

lpad10:                                           ; preds = %invoke.cont7
  %5 = landingpad { ptr, i32 }
          cleanup
  br label %ehcleanup

lpad12:                                           ; preds = %invoke.cont11
  %6 = landingpad { ptr, i32 }
          cleanup
  call void @_ZNSt7__cxx1112basic_stringIcSt11char_traitsIcESaIcEED1Ev(ptr noundef nonnull align 8 dereferenceable(32) %ref.tmp8) #28
  br label %ehcleanup

ehcleanup:                                        ; preds = %lpad12, %lpad10
  %.pn = phi { ptr, i32 } [ %6, %lpad12 ], [ %5, %lpad10 ]
  call void @_ZNSaIcED1Ev(ptr noundef nonnull align 1 dereferenceable(1) %ref.tmp9) #28
  call void @_ZNSt7__cxx1112basic_stringIcSt11char_traitsIcESaIcEED1Ev(ptr noundef nonnull align 8 dereferenceable(32) %ref.tmp4) #28
  br label %ehcleanup15

ehcleanup15:                                      ; preds = %ehcleanup, %lpad6
  %.pn.pn = phi { ptr, i32 } [ %.pn, %ehcleanup ], [ %4, %lpad6 ]
  call void @_ZNSaIcED1Ev(ptr noundef nonnull align 1 dereferenceable(1) %ref.tmp5) #28
  call void @_ZNSt7__cxx1112basic_stringIcSt11char_traitsIcESaIcEED1Ev(ptr noundef nonnull align 8 dereferenceable(32) %ref.tmp) #28
  br label %ehcleanup17

ehcleanup17:                                      ; preds = %ehcleanup15, %lpad
  %.pn.pn.pn = phi { ptr, i32 } [ %.pn.pn, %ehcleanup15 ], [ %3, %lpad ]
  call void @_ZNSaIcED1Ev(ptr noundef nonnull align 1 dereferenceable(1) %ref.tmp3) #28
  resume { ptr, i32 } %.pn.pn.pn

for.body.i:                                       ; preds = %land.lhs.true.i.i, %for.inc.i
  %i.08.i = phi ptr [ %i.0.i, %for.inc.i ], [ %i.06.i.i, %land.lhs.true.i.i ]
  %name.i = getelementptr inbounds i8, ptr %i.08.i, i64 8
  %7 = load ptr, ptr %name.i, align 8
  %tobool4.not.i10 = icmp eq ptr %7, null
  br i1 %tobool4.not.i10, label %for.inc.i, label %land.lhs.true.i

land.lhs.true.i:                                  ; preds = %for.body.i
  %call.i.i = tail call i32 @strcmp(ptr noundef nonnull dereferenceable(1) %name, ptr noundef nonnull dereferenceable(1) %7) #30
  %cmp.i.i = icmp eq i32 %call.i.i, 0
  br i1 %cmp.i.i, label %if.end.i12, label %for.inc.i

for.inc.i:                                        ; preds = %land.lhs.true.i, %for.body.i
  %next_attribute.i = getelementptr inbounds i8, ptr %i.08.i, i64 32
  %i.0.i = load ptr, ptr %next_attribute.i, align 8
  %tobool3.not.i = icmp eq ptr %i.0.i, null
  br i1 %tobool3.not.i, label %_ZNK4pugi13xml_attribute6as_intEi.exit, label %for.body.i, !llvm.loop !4

if.end.i12:                                       ; preds = %land.lhs.true.i
  %value3.i = getelementptr inbounds i8, ptr %i.08.i, i64 16
  %8 = load ptr, ptr %value3.i, align 8
  %tobool4.not.i13 = icmp eq ptr %8, null
  br i1 %tobool4.not.i13, label %_ZNK4pugi13xml_attribute6as_intEi.exit, label %cond.true.i

cond.true.i:                                      ; preds = %if.end.i12
  %call.i.i14 = tail call noundef i32 @_ZN4pugi4impl17string_to_integerIjEET_PKcS2_S2_(ptr noundef nonnull %8, i32 noundef -2147483648, i32 noundef 2147483647)
  br label %_ZNK4pugi13xml_attribute6as_intEi.exit

_ZNK4pugi13xml_attribute6as_intEi.exit:           ; preds = %for.inc.i, %if.end.i12, %cond.true.i
  %retval.0.i15 = phi i32 [ %call.i.i14, %cond.true.i ], [ 0, %if.end.i12 ], [ 0, %for.inc.i ]
  ret i32 %retval.0.i15
}